target datalayout = "e-m:e-p270:32:32-p271:32:32-p272:64:64-i64:64-i128:128-f80:128-n8:16:32:64-S128"
target triple = "x86_64-unknown-linux-gnu"

%struct.b2Vec2 = type { float, float }
%struct.b2JointUserData = type { i64 }
%class.b2WeldJoint = type <{ %class.b2Joint, float, float, float, %struct.b2Vec2, %struct.b2Vec2, float, float, %struct.b2Vec3, i32, i32, %struct.b2Vec2, %struct.b2Vec2, %struct.b2Vec2, %struct.b2Vec2, float, float, float, float, %struct.b2Mat33, [4 x i8] }>
%class.b2Joint = type { ptr, i32, ptr, ptr, %struct.b2JointEdge, %struct.b2JointEdge, ptr, ptr, i32, i8, i8, %struct.b2JointUserData }
%struct.b2JointEdge = type { ptr, ptr, ptr, ptr }
%struct.b2Vec3 = type { float, float, float }
%struct.b2Mat33 = type { %struct.b2Vec3, %struct.b2Vec3, %struct.b2Vec3 }

; Function Attrs: mustprogress uwtable
define linkonce_odr hidden <2 x float> @_ZmlfRK6b2Vec2(float noundef %s, ptr noundef nonnull align 4 dereferenceable(8) %a) #0 comdat {
entry:
  %retval = alloca %struct.b2Vec2, align 4
  %s.addr = alloca float, align 4
  %a.addr = alloca ptr, align 8
  store float %s, ptr %s.addr, align 4
  store ptr %a, ptr %a.addr, align 8
  %0 = load float, ptr %s.addr, align 4
  %1 = load ptr, ptr %a.addr, align 8
  %x = getelementptr inbounds %struct.b2Vec2, ptr %1, i32 0, i32 0
  %2 = load float, ptr %x, align 4
  %mul = fmul float %0, %2
  %3 = load float, ptr %s.addr, align 4
  %4 = load ptr, ptr %a.addr, align 8
  %y = getelementptr inbounds %struct.b2Vec2, ptr %4, i32 0, i32 1
  %5 = load float, ptr %y, align 4
  %mul1 = fmul float %3, %5
  call void @_ZN6b2Vec2C2Eff(ptr noundef nonnull align 4 dereferenceable(8) %retval, float noundef %mul, float noundef %mul1)
  %6 = load <2 x float>, ptr %retval, align 4
  ret <2 x float> %6
}

; Function Attrs: mustprogress nounwind uwtable
define linkonce_odr hidden void @_ZN6b2Vec2C2Eff(ptr noundef nonnull align 4 dereferenceable(8) %this, float noundef %xIn, float noundef %yIn) unnamed_addr #2 comdat align 2 {
entry:
  %this.addr = alloca ptr, align 8
  %xIn.addr = alloca float, align 4
  %yIn.addr = alloca float, align 4
  store ptr %this, ptr %this.addr, align 8
  store float %xIn, ptr %xIn.addr, align 4
  store float %yIn, ptr %yIn.addr, align 4
  %this1 = load ptr, ptr %this.addr, align 8
  %x = getelementptr inbounds %struct.b2Vec2, ptr %this1, i32 0, i32 0
  %0 = load float, ptr %xIn.addr, align 4
  store float %0, ptr %x, align 4
  %y = getelementptr inbounds %struct.b2Vec2, ptr %this1, i32 0, i32 1
  %1 = load float, ptr %yIn.addr, align 4
  store float %1, ptr %y, align 4
  ret void
}

; Function Attrs: mustprogress uwtable
define <2 x float> @_ZNK11b2WeldJoint16GetReactionForceEf(ptr noundef nonnull align 8 dereferenceable(268) %this, float noundef %inv_dt) unnamed_addr #0 align 2 {
entry:
  %retval = alloca %struct.b2Vec2, align 4
  %this.addr = alloca ptr, align 8
  %inv_dt.addr = alloca float, align 4
  %P = alloca %struct.b2Vec2, align 4
  store ptr %this, ptr %this.addr, align 8
  store float %inv_dt, ptr %inv_dt.addr, align 4
  %this1 = load ptr, ptr %this.addr, align 8
  %m_impulse = getelementptr inbounds %class.b2WeldJoint, ptr %this1, i32 0, i32 8
  %x = getelementptr inbounds %struct.b2Vec3, ptr %m_impulse, i32 0, i32 0
  %0 = load float, ptr %x, align 4
  %m_impulse2 = getelementptr inbounds %class.b2WeldJoint, ptr %this1, i32 0, i32 8
  %y = getelementptr inbounds %struct.b2Vec3, ptr %m_impulse2, i32 0, i32 1
  %1 = load float, ptr %y, align 4
  call void @_ZN6b2Vec2C2Eff(ptr noundef nonnull align 4 dereferenceable(8) %P, float noundef %0, float noundef %1)
  %2 = load float, ptr %inv_dt.addr, align 4
  %call = call <2 x float> @_ZmlfRK6b2Vec2(float noundef %2, ptr noundef nonnull align 4 dereferenceable(8) %P)
  store <2 x float> %call, ptr %retval, align 4
  %3 = load <2 x float>, ptr %retval, align 4
  ret <2 x float> %3
}